target datalayout = "e-m:e-p270:32:32-p271:32:32-p272:64:64-i64:64-i128:128-f80:128-n8:16:32:64-S128"
target triple = "x86_64-pc-linux-gnu"

%struct._value_string_ext = type { ptr, i32, i32, ptr, ptr }
%struct._tlv_info_t = type { i32, ptr }
%struct._packet_info = type { ptr, ptr, i32, i32, %struct.nstime_t, %struct.nstime_t, %struct.nstime_t, i8, ptr, ptr, ptr, ptr, %struct._address, %struct._address, %struct._address, %struct._address, %struct._address, %struct._address, i32, ptr, i8, [3 x i8], %struct.anon, i32, i32, i32, i32, ptr, i8, ptr, ptr, i16, i16, i32, i32, i16, i32, i32, ptr, ptr, ptr, i8, i8, i16, i16, i16, i32, i16, i16, ptr, ptr, ptr, ptr, ptr, i32, i32 }
%struct.nstime_t = type { i64, i32 }
%struct._address = type { i32, i32, ptr, ptr }
%struct.anon = type { i8, [3 x i8] }
%struct._tlv_seq_info_t = type { i32 }

@ett_zvt_tlv_dat_obj = internal global i32 0, align 4
@ett_zvt_tlv_tag = internal global i32 0, align 4
@hf_zvt_tlv_tag = internal global i32 0, align 4
@tlv_tags_ext = internal global %struct._value_string_ext { ptr @_try_val_to_str_ext_init, i32 0, i32 18, ptr @tlv_tags, ptr @.str.156 }, align 8
@hf_zvt_tlv_tag_class = internal global i32 0, align 4
@hf_zvt_tlv_tag_type = internal global i32 0, align 4
@hf_zvt_tlv_len = internal global i32 0, align 4
@tlv_table = internal global ptr null, align 8
@.str.183 = private unnamed_addr constant [8 x i8] c"unknown\00", align 1
@.str.185 = private unnamed_addr constant [16 x i8] c"TLV data object\00", align 1
@.str.186 = private unnamed_addr constant [15 x i8] c"Tag: %s (0x%x)\00", align 1

; Function Attrs: null_pointer_is_valid sspstrong uwtable
define internal i32 @dissect_zvt_tlv_len(ptr noundef %0, i32 noundef %1, ptr noundef %2, ptr noundef %3, i32 noundef %4, ptr noundef %5) #0 {
  %7 = alloca i32, align 4
  %8 = alloca ptr, align 8
  %9 = alloca i32, align 4
  %10 = alloca ptr, align 8
  %11 = alloca ptr, align 8
  %12 = alloca i32, align 4
  %13 = alloca ptr, align 8
  %14 = alloca i16, align 2
  %15 = alloca i32, align 4
  %16 = alloca i32, align 4
  store ptr %0, ptr %8, align 8
  store i32 %1, ptr %9, align 4
  store ptr %2, ptr %10, align 8
  store ptr %3, ptr %11, align 8
  store i32 %4, ptr %12, align 4
  store ptr %5, ptr %13, align 8
  call void @llvm.lifetime.start.p0(i64 2, ptr %14) #7
  call void @llvm.lifetime.start.p0(i64 4, ptr %15) #7
  store i32 1, ptr %15, align 4
  %17 = load ptr, ptr %8, align 8
  %18 = load i32, ptr %9, align 4
  %19 = call zeroext i8 @tvb_get_uint8(ptr noundef %17, i32 noundef %18)
  %20 = zext i8 %19 to i16
  store i16 %20, ptr %14, align 2
  %21 = load i16, ptr %14, align 2
  %22 = zext i16 %21 to i32
  %23 = and i32 %22, 128
  %24 = icmp ne i32 %23, 0
  br i1 %24, label %25, label %53

25:                                               ; preds = %6
  %26 = load i16, ptr %14, align 2
  %27 = zext i16 %26 to i32
  %28 = and i32 %27, 3
  %29 = icmp eq i32 %28, 1
  br i1 %29, label %30, label %38

30:                                               ; preds = %25
  %31 = load i32, ptr %15, align 4
  %32 = add i32 %31, 1
  store i32 %32, ptr %15, align 4
  %33 = load ptr, ptr %8, align 8
  %34 = load i32, ptr %9, align 4
  %35 = add i32 %34, 1
  %36 = call zeroext i8 @tvb_get_uint8(ptr noundef %33, i32 noundef %35)
  %37 = zext i8 %36 to i16
  store i16 %37, ptr %14, align 2
  br label %52

38:                                               ; preds = %25
  %39 = load i16, ptr %14, align 2
  %40 = zext i16 %39 to i32
  %41 = and i32 %40, 3
  %42 = icmp eq i32 %41, 2
  br i1 %42, label %43, label %50

43:                                               ; preds = %38
  %44 = load i32, ptr %15, align 4
  %45 = add i32 %44, 2
  store i32 %45, ptr %15, align 4
  %46 = load ptr, ptr %8, align 8
  %47 = load i32, ptr %9, align 4
  %48 = add i32 %47, 1
  %49 = call zeroext i16 @tvb_get_ntohs(ptr noundef %46, i32 noundef %48)
  store i16 %49, ptr %14, align 2
  br label %51

50:                                               ; preds = %38
  store i32 -1, ptr %7, align 4
  store i32 1, ptr %16, align 4
  br label %69

51:                                               ; preds = %43
  br label %52

52:                                               ; preds = %51, %30
  br label %53

53:                                               ; preds = %52, %6
  %54 = load ptr, ptr %11, align 8
  %55 = load i32, ptr %12, align 4
  %56 = load ptr, ptr %8, align 8
  %57 = load i32, ptr %9, align 4
  %58 = load i32, ptr %15, align 4
  %59 = load i16, ptr %14, align 2
  %60 = zext i16 %59 to i32
  %61 = call ptr @proto_tree_add_uint(ptr noundef %54, i32 noundef %55, ptr noundef %56, i32 noundef %57, i32 noundef %58, i32 noundef %60)
  %62 = load ptr, ptr %13, align 8
  %63 = icmp ne ptr %62, null
  br i1 %63, label %64, label %67

64:                                               ; preds = %53
  %65 = load i16, ptr %14, align 2
  %66 = load ptr, ptr %13, align 8
  store i16 %65, ptr %66, align 2
  br label %67

67:                                               ; preds = %64, %53
  %68 = load i32, ptr %15, align 4
  store i32 %68, ptr %7, align 4
  store i32 1, ptr %16, align 4
  br label %69

69:                                               ; preds = %67, %50
  call void @llvm.lifetime.end.p0(i64 4, ptr %15) #7
  call void @llvm.lifetime.end.p0(i64 2, ptr %14) #7
  %70 = load i32, ptr %7, align 4
  ret i32 %70
}

; Function Attrs: null_pointer_is_valid sspstrong uwtable
define internal i32 @dissect_zvt_tlv_tag(ptr noundef %0, i32 noundef %1, ptr noundef %2, ptr noundef %3, ptr noundef %4) #0 {
  %6 = alloca i32, align 4
  %7 = alloca ptr, align 8
  %8 = alloca i32, align 4
  %9 = alloca ptr, align 8
  %10 = alloca ptr, align 8
  %11 = alloca ptr, align 8
  %12 = alloca i32, align 4
  %13 = alloca i8, align 1
  %14 = alloca i32, align 4
  %15 = alloca ptr, align 8
  %16 = alloca ptr, align 8
  %17 = alloca i32, align 4
  store ptr %0, ptr %7, align 8
  store i32 %1, ptr %8, align 4
  store ptr %2, ptr %9, align 8
  store ptr %3, ptr %10, align 8
  store ptr %4, ptr %11, align 8
  call void @llvm.lifetime.start.p0(i64 4, ptr %12) #7
  call void @llvm.lifetime.start.p0(i64 1, ptr %13) #7
  call void @llvm.lifetime.start.p0(i64 4, ptr %14) #7
  call void @llvm.lifetime.start.p0(i64 8, ptr %15) #7
  call void @llvm.lifetime.start.p0(i64 8, ptr %16) #7
  %18 = load i32, ptr %8, align 4
  store i32 %18, ptr %12, align 4
  %19 = load ptr, ptr %7, align 8
  %20 = load i32, ptr %8, align 4
  %21 = call zeroext i8 @tvb_get_uint8(ptr noundef %19, i32 noundef %20)
  store i8 %21, ptr %13, align 1
  %22 = load i8, ptr %13, align 1
  %23 = zext i8 %22 to i32
  store i32 %23, ptr %14, align 4
  %24 = load i32, ptr %8, align 4
  %25 = add i32 %24, 1
  store i32 %25, ptr %8, align 4
  %26 = load i8, ptr %13, align 1
  %27 = zext i8 %26 to i32
  %28 = and i32 %27, 31
  %29 = icmp eq i32 %28, 31
  br i1 %29, label %30, label %55

30:                                               ; preds = %5
  br label %31

31:                                               ; preds = %49, %30
  %32 = load i32, ptr %8, align 4
  %33 = load i32, ptr %12, align 4
  %34 = sub i32 %32, %33
  %35 = icmp sgt i32 %34, 4
  br i1 %35, label %36, label %37

36:                                               ; preds = %31
  store i32 -1, ptr %6, align 4
  store i32 1, ptr %17, align 4
  br label %90

37:                                               ; preds = %31
  %38 = load ptr, ptr %7, align 8
  %39 = load i32, ptr %8, align 4
  %40 = call zeroext i8 @tvb_get_uint8(ptr noundef %38, i32 noundef %39)
  store i8 %40, ptr %13, align 1
  %41 = load i32, ptr %14, align 4
  %42 = shl i32 %41, 8
  %43 = load i8, ptr %13, align 1
  %44 = zext i8 %43 to i32
  %45 = and i32 %44, 127
  %46 = or i32 %42, %45
  store i32 %46, ptr %14, align 4
  %47 = load i32, ptr %8, align 4
  %48 = add i32 %47, 1
  store i32 %48, ptr %8, align 4
  br label %49

49:                                               ; preds = %37
  %50 = load i8, ptr %13, align 1
  %51 = zext i8 %50 to i32
  %52 = and i32 %51, 128
  %53 = icmp ne i32 %52, 0
  br i1 %53, label %31, label %54, !llvm.loop !14

54:                                               ; preds = %49
  br label %55

55:                                               ; preds = %54, %5
  %56 = load ptr, ptr %10, align 8
  %57 = load i32, ptr @hf_zvt_tlv_tag, align 4
  %58 = load ptr, ptr %7, align 8
  %59 = load i32, ptr %12, align 4
  %60 = load i32, ptr %8, align 4
  %61 = load i32, ptr %12, align 4
  %62 = sub i32 %60, %61
  %63 = load i32, ptr %14, align 4
  %64 = load i32, ptr %14, align 4
  %65 = call ptr @val_to_str_ext_const(i32 noundef %64, ptr noundef @tlv_tags_ext, ptr noundef @.str.183)
  %66 = load i32, ptr %14, align 4
  %67 = call ptr (ptr, i32, ptr, i32, i32, i32, ptr, ...) @proto_tree_add_uint_format(ptr noundef %56, i32 noundef %57, ptr noundef %58, i32 noundef %59, i32 noundef %62, i32 noundef %63, ptr noundef @.str.186, ptr noundef %65, i32 noundef %66)
  store ptr %67, ptr %15, align 8
  %68 = load ptr, ptr %15, align 8
  %69 = load i32, ptr @ett_zvt_tlv_tag, align 4
  %70 = call ptr @proto_item_add_subtree(ptr noundef %68, i32 noundef %69)
  store ptr %70, ptr %16, align 8
  %71 = load ptr, ptr %16, align 8
  %72 = load i32, ptr @hf_zvt_tlv_tag_class, align 4
  %73 = load ptr, ptr %7, align 8
  %74 = load i32, ptr %12, align 4
  %75 = call ptr @proto_tree_add_item(ptr noundef %71, i32 noundef %72, ptr noundef %73, i32 noundef %74, i32 noundef 1, i32 noundef 0)
  %76 = load ptr, ptr %16, align 8
  %77 = load i32, ptr @hf_zvt_tlv_tag_type, align 4
  %78 = load ptr, ptr %7, align 8
  %79 = load i32, ptr %12, align 4
  %80 = call ptr @proto_tree_add_item(ptr noundef %76, i32 noundef %77, ptr noundef %78, i32 noundef %79, i32 noundef 1, i32 noundef 0)
  %81 = load ptr, ptr %11, align 8
  %82 = icmp ne ptr %81, null
  br i1 %82, label %83, label %86

83:                                               ; preds = %55
  %84 = load i32, ptr %14, align 4
  %85 = load ptr, ptr %11, align 8
  store i32 %84, ptr %85, align 4
  br label %86

86:                                               ; preds = %83, %55
  %87 = load i32, ptr %8, align 4
  %88 = load i32, ptr %12, align 4
  %89 = sub i32 %87, %88
  store i32 %89, ptr %6, align 4
  store i32 1, ptr %17, align 4
  br label %90

90:                                               ; preds = %86, %36
  call void @llvm.lifetime.end.p0(i64 8, ptr %16) #7
  call void @llvm.lifetime.end.p0(i64 8, ptr %15) #7
  call void @llvm.lifetime.end.p0(i64 4, ptr %14) #7
  call void @llvm.lifetime.end.p0(i64 1, ptr %13) #7
  call void @llvm.lifetime.end.p0(i64 4, ptr %12) #7
  %91 = load i32, ptr %6, align 4
  ret i32 %91
}

; Function Attrs: null_pointer_is_valid sspstrong uwtable
define internal i32 @dissect_zvt_tlv_seq(ptr noundef %0, i32 noundef %1, i16 noundef zeroext %2, ptr noundef %3, ptr noundef %4, ptr noundef %5) #0 {
  %7 = alloca i32, align 4
  %8 = alloca ptr, align 8
  %9 = alloca i32, align 4
  %10 = alloca i16, align 2
  %11 = alloca ptr, align 8
  %12 = alloca ptr, align 8
  %13 = alloca ptr, align 8
  %14 = alloca i32, align 4
  %15 = alloca ptr, align 8
  %16 = alloca ptr, align 8
  %17 = alloca i32, align 4
  %18 = alloca i32, align 4
  %19 = alloca i32, align 4
  %20 = alloca i16, align 2
  %21 = alloca ptr, align 8
  %22 = alloca i32, align 4
  %23 = alloca i32, align 4
  store ptr %0, ptr %8, align 8
  store i32 %1, ptr %9, align 4
  store i16 %2, ptr %10, align 2
  store ptr %3, ptr %11, align 8
  store ptr %4, ptr %12, align 8
  store ptr %5, ptr %13, align 8
  call void @llvm.lifetime.start.p0(i64 4, ptr %14) #7
  call void @llvm.lifetime.start.p0(i64 8, ptr %15) #7
  call void @llvm.lifetime.start.p0(i64 8, ptr %16) #7
  call void @llvm.lifetime.start.p0(i64 4, ptr %17) #7
  call void @llvm.lifetime.start.p0(i64 4, ptr %18) #7
  call void @llvm.lifetime.start.p0(i64 4, ptr %19) #7
  call void @llvm.lifetime.start.p0(i64 2, ptr %20) #7
  store i16 0, ptr %20, align 2
  call void @llvm.lifetime.start.p0(i64 8, ptr %21) #7
  call void @llvm.lifetime.start.p0(i64 4, ptr %22) #7
  %24 = load ptr, ptr %13, align 8
  %25 = icmp ne ptr %24, null
  br i1 %25, label %33, label %26

26:                                               ; preds = %6
  %27 = load ptr, ptr %11, align 8
  %28 = getelementptr inbounds nuw %struct._packet_info, ptr %27, i32 0, i32 51
  %29 = load ptr, ptr %28, align 8
  %30 = call noalias ptr @wmem_alloc(ptr noundef %29, i64 noundef 4) #8
  store ptr %30, ptr %13, align 8
  %31 = load ptr, ptr %13, align 8
  %32 = getelementptr inbounds nuw %struct._tlv_seq_info_t, ptr %31, i32 0, i32 0
  store i32 50, ptr %32, align 4
  br label %33

33:                                               ; preds = %26, %6
  %34 = load i32, ptr %9, align 4
  store i32 %34, ptr %14, align 4
  br label %35

35:                                               ; preds = %116, %86, %33
  %36 = load i32, ptr %9, align 4
  %37 = load i32, ptr %14, align 4
  %38 = sub i32 %36, %37
  %39 = load i16, ptr %10, align 2
  %40 = zext i16 %39 to i32
  %41 = icmp slt i32 %38, %40
  br i1 %41, label %42, label %121

42:                                               ; preds = %35
  %43 = load ptr, ptr %12, align 8
  %44 = load ptr, ptr %8, align 8
  %45 = load i32, ptr %9, align 4
  %46 = load i32, ptr @ett_zvt_tlv_dat_obj, align 4
  %47 = call ptr @proto_tree_add_subtree(ptr noundef %43, ptr noundef %44, i32 noundef %45, i32 noundef -1, i32 noundef %46, ptr noundef %15, ptr noundef @.str.185)
  store ptr %47, ptr %16, align 8
  %48 = load ptr, ptr %8, align 8
  %49 = load i32, ptr %9, align 4
  %50 = load ptr, ptr %11, align 8
  %51 = load ptr, ptr %16, align 8
  %52 = call i32 @dissect_zvt_tlv_tag(ptr noundef %48, i32 noundef %49, ptr noundef %50, ptr noundef %51, ptr noundef %18)
  store i32 %52, ptr %17, align 4
  %53 = load i32, ptr %17, align 4
  %54 = icmp sle i32 %53, 0
  br i1 %54, label %55, label %59

55:                                               ; preds = %42
  %56 = load i32, ptr %9, align 4
  %57 = load i32, ptr %14, align 4
  %58 = sub i32 %56, %57
  store i32 %58, ptr %7, align 4
  store i32 1, ptr %23, align 4
  br label %125

59:                                               ; preds = %42
  %60 = load i32, ptr %17, align 4
  %61 = load i32, ptr %9, align 4
  %62 = add i32 %61, %60
  store i32 %62, ptr %9, align 4
  %63 = load ptr, ptr %8, align 8
  %64 = load i32, ptr %9, align 4
  %65 = load ptr, ptr %11, align 8
  %66 = load ptr, ptr %16, align 8
  %67 = load i32, ptr @hf_zvt_tlv_len, align 4
  %68 = call i32 @dissect_zvt_tlv_len(ptr noundef %63, i32 noundef %64, ptr noundef %65, ptr noundef %66, i32 noundef %67, ptr noundef %20)
  store i32 %68, ptr %19, align 4
  %69 = load i32, ptr %19, align 4
  %70 = icmp sgt i32 %69, 0
  br i1 %70, label %71, label %75

71:                                               ; preds = %59
  %72 = load i32, ptr %19, align 4
  %73 = load i32, ptr %9, align 4
  %74 = add i32 %73, %72
  store i32 %74, ptr %9, align 4
  br label %75

75:                                               ; preds = %71, %59
  %76 = load ptr, ptr %15, align 8
  %77 = load i32, ptr %17, align 4
  %78 = load i32, ptr %19, align 4
  %79 = add i32 %77, %78
  %80 = load i16, ptr %20, align 2
  %81 = zext i16 %80 to i32
  %82 = add i32 %79, %81
  call void @proto_item_set_len(ptr noundef %76, i32 noundef %82)
  %83 = load i16, ptr %20, align 2
  %84 = zext i16 %83 to i32
  %85 = icmp eq i32 %84, 0
  br i1 %85, label %86, label %87

86:                                               ; preds = %75
  br label %35, !llvm.loop !13

87:                                               ; preds = %75
  %88 = load ptr, ptr @tlv_table, align 8
  %89 = load i32, ptr %18, align 4
  %90 = zext i32 %89 to i64
  %91 = inttoptr i64 %90 to ptr
  %92 = call ptr @g_hash_table_lookup(ptr noundef %88, ptr noundef %91)
  store ptr %92, ptr %21, align 8
  %93 = load ptr, ptr %21, align 8
  %94 = icmp ne ptr %93, null
  br i1 %94, label %95, label %116

95:                                               ; preds = %87
  %96 = load ptr, ptr %21, align 8
  %97 = getelementptr inbounds nuw %struct._tlv_info_t, ptr %96, i32 0, i32 1
  %98 = load ptr, ptr %97, align 8
  %99 = icmp ne ptr %98, null
  br i1 %99, label %100, label %116

100:                                              ; preds = %95
  %101 = load ptr, ptr %21, align 8
  %102 = getelementptr inbounds nuw %struct._tlv_info_t, ptr %101, i32 0, i32 1
  %103 = load ptr, ptr %102, align 8
  %104 = load ptr, ptr %8, align 8
  %105 = load i32, ptr %9, align 4
  %106 = load i16, ptr %20, align 2
  %107 = zext i16 %106 to i32
  %108 = load ptr, ptr %11, align 8
  %109 = load ptr, ptr %16, align 8
  %110 = load ptr, ptr %13, align 8
  %111 = call i32 %103(ptr noundef %104, i32 noundef %105, i32 noundef %107, ptr noundef %108, ptr noundef %109, ptr noundef %110)
  store i32 %111, ptr %22, align 4
  %112 = load i32, ptr %22, align 4
  %113 = icmp sle i32 %112, 0
  br i1 %113, label %114, label %115

114:                                              ; preds = %100
  br label %115

115:                                              ; preds = %114, %100
  br label %116

116:                                              ; preds = %115, %95, %87
  %117 = load i16, ptr %20, align 2
  %118 = zext i16 %117 to i32
  %119 = load i32, ptr %9, align 4
  %120 = add i32 %119, %118
  store i32 %120, ptr %9, align 4
  br label %35, !llvm.loop !13

121:                                              ; preds = %35
  %122 = load i32, ptr %9, align 4
  %123 = load i32, ptr %14, align 4
  %124 = sub i32 %122, %123
  store i32 %124, ptr %7, align 4
  store i32 1, ptr %23, align 4
  br label %125

125:                                              ; preds = %121, %55
  call void @llvm.lifetime.end.p0(i64 4, ptr %22) #7
  call void @llvm.lifetime.end.p0(i64 8, ptr %21) #7
  call void @llvm.lifetime.end.p0(i64 2, ptr %20) #7
  call void @llvm.lifetime.end.p0(i64 4, ptr %19) #7
  call void @llvm.lifetime.end.p0(i64 4, ptr %18) #7
  call void @llvm.lifetime.end.p0(i64 4, ptr %17) #7
  call void @llvm.lifetime.end.p0(i64 8, ptr %16) #7
  call void @llvm.lifetime.end.p0(i64 8, ptr %15) #7
  call void @llvm.lifetime.end.p0(i64 4, ptr %14) #7
  %126 = load i32, ptr %7, align 4
  ret i32 %126
}