; Function Attrs: null_pointer_is_valid sspstrong uwtable
define internal fastcc i32 @dissect_zvt_tlv_seq(ptr noundef %0, i32 noundef %1, i16 noundef zeroext %2, ptr noundef %3, ptr noundef %4, ptr noundef %5) unnamed_addr #0 {
  %7 = alloca ptr, align 8
  call void @llvm.lifetime.start.p0(i64 8, ptr nonnull %7) #7
  %.not = icmp eq ptr %5, null
  br i1 %.not, label %8, label %12

8:                                                ; preds = %6
  %9 = getelementptr inbounds nuw i8, ptr %3, i64 408
  %10 = load ptr, ptr %9, align 8
  %11 = tail call noalias dereferenceable_or_null(4) ptr @wmem_alloc(ptr noundef %10, i64 noundef 4) #8
  store i32 50, ptr %11, align 4
  br label %12

12:                                               ; preds = %8, %6
  %.041 = phi ptr [ %5, %6 ], [ %11, %8 ]
  %13 = zext i16 %2 to i32
  %.not74 = icmp eq i16 %2, 0
  br i1 %.not74, label %dissect_zvt_tlv_tag.exit.thread, label %.lr.ph

.lr.ph:                                           ; preds = %12, %.backedge
  %14 = phi i32 [ %76, %.backedge ], [ 0, %12 ]
  %.04072 = phi i32 [ %.040.be, %.backedge ], [ %1, %12 ]
  %.071 = phi i16 [ %.163, %.backedge ], [ 0, %12 ]
  %15 = load i32, ptr @ett_zvt_tlv_dat_obj, align 4
  %16 = call ptr @proto_tree_add_subtree(ptr noundef %4, ptr noundef %0, i32 noundef %.04072, i32 noundef -1, i32 noundef %15, ptr noundef nonnull %7, ptr noundef nonnull @.str.185)
  %17 = call zeroext i8 @tvb_get_uint8(ptr noundef %0, i32 noundef %.04072)
  %18 = zext i8 %17 to i32
  %19 = add i32 %.04072, 1
  %20 = and i32 %18, 31
  %21 = icmp eq i32 %20, 31
  br i1 %21, label %.preheader.i, label %dissect_zvt_tlv_tag.exit

.preheader.i:                                     ; preds = %.lr.ph, %24
  %.136.i = phi i32 [ %29, %24 ], [ %18, %.lr.ph ]
  %.1.i = phi i32 [ %30, %24 ], [ %19, %.lr.ph ]
  %22 = sub i32 %.1.i, %.04072
  %23 = icmp ugt i32 %22, 4
  br i1 %23, label %dissect_zvt_tlv_tag.exit.thread, label %24

24:                                               ; preds = %.preheader.i
  %25 = call zeroext i8 @tvb_get_uint8(ptr noundef %0, i32 noundef %.1.i)
  %26 = shl i32 %.136.i, 8
  %27 = and i8 %25, 127
  %28 = zext nneg i8 %27 to i32
  %29 = or disjoint i32 %26, %28
  %30 = add i32 %.1.i, 1
  %.not.i = icmp sgt i8 %25, -1
  br i1 %.not.i, label %dissect_zvt_tlv_tag.exit, label %.preheader.i, !llvm.loop !11

dissect_zvt_tlv_tag.exit:                         ; preds = %24, %.lr.ph
  %.035.i = phi i32 [ %18, %.lr.ph ], [ %29, %24 ]
  %.034.i = phi i32 [ %19, %.lr.ph ], [ %30, %24 ]
  %31 = load i32, ptr @hf_zvt_tlv_tag, align 4
  %32 = sub i32 %.034.i, %.04072
  %33 = call ptr @val_to_str_ext_const(i32 noundef %.035.i, ptr noundef nonnull @tlv_tags_ext, ptr noundef nonnull @.str.183)
  %34 = call ptr (ptr, i32, ptr, i32, i32, i32, ptr, ...) @proto_tree_add_uint_format(ptr noundef %16, i32 noundef %31, ptr noundef %0, i32 noundef %.04072, i32 noundef %32, i32 noundef %.035.i, ptr noundef nonnull @.str.186, ptr noundef %33, i32 noundef %.035.i)
  %35 = load i32, ptr @ett_zvt_tlv_tag, align 4
  %36 = call ptr @proto_item_add_subtree(ptr noundef %34, i32 noundef %35)
  %37 = load i32, ptr @hf_zvt_tlv_tag_class, align 4
  %38 = call ptr @proto_tree_add_item(ptr noundef %36, i32 noundef %37, ptr noundef %0, i32 noundef %.04072, i32 noundef 1, i32 noundef 0)
  %39 = load i32, ptr @hf_zvt_tlv_tag_type, align 4
  %40 = call ptr @proto_tree_add_item(ptr noundef %36, i32 noundef %39, ptr noundef %0, i32 noundef %.04072, i32 noundef 1, i32 noundef 0)
  %41 = icmp slt i32 %32, 1
  br i1 %41, label %dissect_zvt_tlv_tag.exit.thread, label %42

42:                                               ; preds = %dissect_zvt_tlv_tag.exit
  %43 = load i32, ptr @hf_zvt_tlv_len, align 4
  %44 = call zeroext i8 @tvb_get_uint8(ptr noundef %0, i32 noundef %.034.i)
  %45 = zext nneg i8 %44 to i16
  %.not.i51 = icmp sgt i8 %44, -1
  br i1 %.not.i51, label %55, label %46

46:                                               ; preds = %42
  %47 = and i8 %44, 3
  switch i8 %47, label %.dissect_zvt_tlv_len.exit_crit_edge [
    i8 1, label %48
    i8 2, label %52
  ]

.dissect_zvt_tlv_len.exit_crit_edge:              ; preds = %46
  %.pre = zext i16 %.071 to i32
  br label %dissect_zvt_tlv_len.exit

48:                                               ; preds = %46
  %49 = add i32 %.034.i, 1
  %50 = call zeroext i8 @tvb_get_uint8(ptr noundef %0, i32 noundef %49)
  %51 = zext i8 %50 to i16
  br label %55

52:                                               ; preds = %46
  %53 = add i32 %.034.i, 1
  %54 = call zeroext i16 @tvb_get_ntohs(ptr noundef %0, i32 noundef %53)
  br label %55

55:                                               ; preds = %42, %48, %52
  %.021.i = phi i16 [ %51, %48 ], [ %54, %52 ], [ %45, %42 ]
  %.0.i52 = phi i32 [ 2, %48 ], [ 3, %52 ], [ 1, %42 ]
  %56 = zext i16 %.021.i to i32
  %57 = call ptr @proto_tree_add_uint(ptr noundef %16, i32 noundef %43, ptr noundef %0, i32 noundef %.034.i, i32 noundef %.0.i52, i32 noundef %56)
  %58 = add i32 %.0.i52, %.034.i
  br label %dissect_zvt_tlv_len.exit

dissect_zvt_tlv_len.exit:                         ; preds = %.dissect_zvt_tlv_len.exit_crit_edge, %55
  %.pre-phi = phi i32 [ %.pre, %.dissect_zvt_tlv_len.exit_crit_edge ], [ %56, %55 ]
  %.022.i65 = phi i32 [ -1, %.dissect_zvt_tlv_len.exit_crit_edge ], [ %.0.i52, %55 ]
  %.163 = phi i16 [ %.071, %.dissect_zvt_tlv_len.exit_crit_edge ], [ %.021.i, %55 ]
  %59 = phi i32 [ %.034.i, %.dissect_zvt_tlv_len.exit_crit_edge ], [ %58, %55 ]
  %60 = load ptr, ptr %7, align 8
  %61 = add i32 %.022.i65, %32
  %62 = add nuw i32 %61, %.pre-phi
  call void @proto_item_set_len(ptr noundef %60, i32 noundef %62)
  %63 = icmp eq i16 %.163, 0
  br i1 %63, label %.backedge, label %64

64:                                               ; preds = %dissect_zvt_tlv_len.exit
  %65 = load ptr, ptr @tlv_table, align 8
  %66 = zext i32 %.035.i to i64
  %67 = inttoptr i64 %66 to ptr
  %68 = call ptr @g_hash_table_lookup(ptr noundef %65, ptr noundef %67)
  %.not49 = icmp eq ptr %68, null
  br i1 %.not49, label %74, label %69

69:                                               ; preds = %64
  %70 = getelementptr inbounds nuw i8, ptr %68, i64 8
  %71 = load ptr, ptr %70, align 8
  %.not50 = icmp eq ptr %71, null
  br i1 %.not50, label %74, label %72

72:                                               ; preds = %69
  %73 = call i32 %71(ptr noundef %0, i32 noundef %59, i32 noundef %.pre-phi, ptr noundef %3, ptr noundef %16, ptr noundef %.041)
  br label %74

74:                                               ; preds = %72, %69, %64
  %75 = add i32 %59, %.pre-phi
  br label %.backedge

.backedge:                                        ; preds = %74, %dissect_zvt_tlv_len.exit
  %.040.be = phi i32 [ %59, %dissect_zvt_tlv_len.exit ], [ %75, %74 ]
  %76 = sub i32 %.040.be, %1
  %77 = icmp slt i32 %76, %13
  br i1 %77, label %.lr.ph, label %dissect_zvt_tlv_tag.exit.thread, !llvm.loop !12

dissect_zvt_tlv_tag.exit.thread:                  ; preds = %dissect_zvt_tlv_tag.exit, %.backedge, %.preheader.i, %12
  %78 = phi i32 [ 0, %12 ], [ %14, %.preheader.i ], [ %14, %dissect_zvt_tlv_tag.exit ], [ %76, %.backedge ]
  call void @llvm.lifetime.end.p0(i64 8, ptr nonnull %7) #7
  ret i32 %78
}